BL51 BANKED LINKER/LOCATER V6.22                                                        06/01/2019  15:14:54  PAGE 1


BL51 BANKED LINKER/LOCATER V6.22, INVOKED BY:
D:\KEIL_V5\C51\BIN\BL51.EXE .\Objects\main.obj TO .\Objects\usart PRINT (.\Listings\usart.m51) RAMSIZE (256)


MEMORY MODEL: SMALL WITH FLOATING POINT ARITHMETIC


INPUT MODULES INCLUDED:
  .\Objects\main.obj (MAIN)
  D:\KEIL_V5\C51\LIB\C51FPS.LIB (?C?FPDIV)
  D:\KEIL_V5\C51\LIB\C51FPS.LIB (?C?FCAST)
  D:\KEIL_V5\C51\LIB\C51FPS.LIB (?C?CASTF)
  D:\KEIL_V5\C51\LIB\C51FPS.LIB (PRINTF)
  D:\KEIL_V5\C51\LIB\C51FPS.LIB (?C?FPGETOPN)
  D:\KEIL_V5\C51\LIB\C51FPS.LIB (?C?FPROUND)
  D:\KEIL_V5\C51\LIB\C51FPS.LIB (?C?FPCONVERT)
  D:\KEIL_V5\C51\LIB\C51FPS.LIB (?C?FPADD)
  D:\KEIL_V5\C51\LIB\C51FPS.LIB (?C?FPMUL)
  D:\KEIL_V5\C51\LIB\C51FPS.LIB (?C?FTNPWR)
  D:\KEIL_V5\C51\LIB\C51S.LIB (?C_STARTUP)
  D:\KEIL_V5\C51\LIB\C51S.LIB (?C?CLDPTR)
  D:\KEIL_V5\C51\LIB\C51S.LIB (?C?CLDOPTR)
  D:\KEIL_V5\C51\LIB\C51S.LIB (?C?CSTPTR)
  D:\KEIL_V5\C51\LIB\C51S.LIB (?C?LMUL)
  D:\KEIL_V5\C51\LIB\C51S.LIB (?C?ULDIV)
  D:\KEIL_V5\C51\LIB\C51S.LIB (?C?SLDIV)
  D:\KEIL_V5\C51\LIB\C51S.LIB (?C?LNEG)
  D:\KEIL_V5\C51\LIB\C51S.LIB (?C?ULSHR)
  D:\KEIL_V5\C51\LIB\C51S.LIB (?C?PLDIIDATA)
  D:\KEIL_V5\C51\LIB\C51S.LIB (?C?CCASE)
  D:\KEIL_V5\C51\LIB\C51S.LIB (?C?STRCMP)
  D:\KEIL_V5\C51\LIB\C51S.LIB (?C_INIT)


LINK MAP OF MODULE:  .\Objects\usart (MAIN)


            TYPE    BASE      LENGTH    RELOCATION   SEGMENT NAME
            -----------------------------------------------------

            * * * * * * *   D A T A   M E M O R Y   * * * * * * *
            REG     0000H     0008H     ABSOLUTE     "REG BANK 0"
                    0008H     0018H                  *** GAP ***
            BIT     0020H.0   0001H.1   UNIT         _BIT_GROUP_
                    0021H.1   0000H.7                *** GAP ***
            DATA    0022H     0035H     UNIT         ?DT?MAIN
            DATA    0057H     0023H     UNIT         _DATA_GROUP_
            IDATA   007AH     0001H     UNIT         ?STACK

            * * * * * * *   C O D E   M E M O R Y   * * * * * * *
            CODE    0000H     0003H     ABSOLUTE     
            CODE    0003H     0008H     UNIT         ?PR?_PUTCHAR?MAIN
            CODE    000BH     0003H     ABSOLUTE     
            CODE    000EH     0009H     UNIT         ?C_INITSEG
                    0017H     0004H                  *** GAP ***
            CODE    001BH     0003H     ABSOLUTE     
                    001EH     0005H                  *** GAP ***
            CODE    0023H     0003H     ABSOLUTE     
BL51 BANKED LINKER/LOCATER V6.22                                                      06/01/2019  15:14:54  PAGE 2


            CODE    0026H     0866H     UNIT         ?C?LIB_CODE
            CODE    088CH     046FH     UNIT         ?PR?PRINTF?PRINTF
            CODE    0CFBH     017CH     UNIT         ?PR?CMD_RESOLVE?MAIN
            CODE    0E77H     00D0H     UNIT         ?PR?MAIN?MAIN
            CODE    0F47H     008CH     UNIT         ?C_C51STARTUP
            CODE    0FD3H     0071H     UNIT         ?PR?USART_INTERRUPT?MAIN
            CODE    1044H     0069H     UNIT         ?PR?_USART_INIT?MAIN
            CODE    10ADH     005CH     UNIT         ?CO?MAIN
            CODE    1109H     0048H     UNIT         ?PR?GET_FRQ?MAIN
            CODE    1151H     0044H     UNIT         ?C?LDIV
            CODE    1195H     0030H     UNIT         ?PR?GET_T?MAIN
            CODE    11C5H     0027H     UNIT         ?PR?TIMER0?MAIN
            CODE    11ECH     0027H     UNIT         ?PR?TIMER1?MAIN
            CODE    1213H     0024H     UNIT         ?PR?GET_HIGH?MAIN
            CODE    1237H     0013H     UNIT         ?PR?TIMER_INIT?MAIN



OVERLAY MAP OF MODULE:   .\Objects\usart (MAIN)


SEGMENT                             BIT_GROUP          DATA_GROUP 
  +--> CALLED SEGMENT            START    LENGTH     START    LENGTH
--------------------------------------------------------------------
?PR?USART_INTERRUPT?MAIN         -----    -----      -----    -----
  +--> ?PR?CMD_RESOLVE?MAIN

?PR?CMD_RESOLVE?MAIN             -----    -----      0057H    0002H
  +--> ?CO?MAIN
  +--> ?PR?GET_FRQ?MAIN
  +--> ?PR?GET_T?MAIN
  +--> ?PR?GET_HIGH?MAIN
  +--> ?PR?PRINTF?PRINTF

?PR?PRINTF?PRINTF                0020H.0  0001H.1    0059H    001CH
  +--> ?PR?_PUTCHAR?MAIN

*** NEW ROOT ***************************************************

?C_C51STARTUP                    -----    -----      -----    -----
  +--> ?PR?MAIN?MAIN
  +--> ?C_INITSEG

?PR?MAIN?MAIN                    -----    -----      0075H    0001H
  +--> ?PR?TIMER_INIT?MAIN
  +--> ?PR?_USART_INIT?MAIN

?PR?_USART_INIT?MAIN             -----    -----      0076H    0004H



SYMBOL TABLE OF MODULE:  .\Objects\usart (MAIN)

  VALUE           TYPE          NAME
  ----------------------------------

  -------         MODULE        MAIN
BL51 BANKED LINKER/LOCATER V6.22                                                      06/01/2019  15:14:54  PAGE 3


  C:0000H         SYMBOL        _ICE_DUMMY_
  D:0090H         PUBLIC        P1
  D:00B0H         PUBLIC        P3
  B:00A8H.7       PUBLIC        EA
  C:0FD3H         PUBLIC        usart_interrupt
  D:00A8H         PUBLIC        IE
  B:00A8H.4       PUBLIC        ES
  D:00B8H         PUBLIC        IP
  C:0CFBH         PUBLIC        cmd_resolve
  B:0098H.0       PUBLIC        RI
  B:0098H.1       PUBLIC        TI
  D:00CBH         PUBLIC        RCAP2H
  D:00CAH         PUBLIC        RCAP2L
  C:0E77H         PUBLIC        main
  B:0090H.3       PUBLIC        WAVE_IN
  D:0023H         PUBLIC        high_count
  D:0099H         PUBLIC        SBUF
  D:0098H         PUBLIC        SCON
  D:0089H         PUBLIC        TMOD
  D:0088H         PUBLIC        TCON
  C:1237H         PUBLIC        timer_init
  C:1213H         PUBLIC        get_high
  C:1044H         PUBLIC        _usart_init
  B:00A8H.1       PUBLIC        ET0
  B:00A8H.3       PUBLIC        ET1
  D:008CH         PUBLIC        TH0
  D:008DH         PUBLIC        TH1
  D:00CDH         PUBLIC        TH2
  D:008AH         PUBLIC        TL0
  D:0027H         PUBLIC        usart_buf
  D:008BH         PUBLIC        TL1
  D:00CCH         PUBLIC        TL2
  C:11C5H         PUBLIC        timer0
  C:11ECH         PUBLIC        timer1
  B:0088H.4       PUBLIC        TR0
  B:0088H.6       PUBLIC        TR1
  D:004FH         PUBLIC        count1
  D:0051H         PUBLIC        count2
  D:0053H         PUBLIC        low_count
  D:00C8H         PUBLIC        T2CON
  C:1109H         PUBLIC        get_frq
  C:1195H         PUBLIC        get_T
  D:00D0H         PUBLIC        PSW
  C:0003H         PUBLIC        _putchar
  -------         PROC          TIMER_INIT
  C:1237H         LINE#         20
  C:1237H         LINE#         21
  C:1237H         LINE#         22
  C:123AH         LINE#         23
  C:123FH         LINE#         24
  C:1243H         LINE#         25
  C:1247H         LINE#         26
  C:1249H         LINE#         27
  -------         ENDPROC       TIMER_INIT
  -------         PROC          TIMER0
  C:11C5H         LINE#         29
  C:11C7H         LINE#         31
BL51 BANKED LINKER/LOCATER V6.22                                                      06/01/2019  15:14:54  PAGE 4


  C:11D5H         LINE#         32
  C:11D5H         LINE#         33
  C:11E5H         LINE#         34
  C:11E9H         LINE#         35
  C:11E9H         LINE#         36
  -------         ENDPROC       TIMER0
  -------         PROC          TIMER1
  C:11ECH         LINE#         38
  C:11EEH         LINE#         40
  C:11FCH         LINE#         41
  C:11FCH         LINE#         42
  C:120CH         LINE#         43
  C:1210H         LINE#         44
  C:1210H         LINE#         45
  -------         ENDPROC       TIMER1
  -------         PROC          GET_T
  C:1195H         LINE#         48
  C:1195H         LINE#         49
  C:1195H         LINE#         50
  C:11C4H         LINE#         51
  -------         ENDPROC       GET_T
  -------         PROC          GET_FRQ
  -------         DO            
  D:0006H         SYMBOL        t
  -------         ENDDO         
  C:1109H         LINE#         53
  C:1109H         LINE#         54
  C:1109H         LINE#         55
  C:1138H         LINE#         56
  C:113CH         LINE#         57
  C:114DH         LINE#         58
  C:1150H         LINE#         59
  -------         ENDPROC       GET_FRQ
  -------         PROC          GET_HIGH
  C:1213H         LINE#         61
  C:1213H         LINE#         62
  C:1213H         LINE#         63
  C:1236H         LINE#         64
  -------         ENDPROC       GET_HIGH
  -------         PROC          _USART_INIT
  D:0076H         SYMBOL        bps
  C:1044H         LINE#         70
  C:104CH         LINE#         71
  C:104CH         LINE#         72
  C:104FH         LINE#         73
  C:1082H         LINE#         74
  C:10A5H         LINE#         75
  C:10A8H         LINE#         76
  C:10ACH         LINE#         77
  -------         ENDPROC       _USART_INIT
  -------         PROC          _PUTCHAR
  D:0007H         SYMBOL        ch
  C:0003H         LINE#         81
  C:0003H         LINE#         82
  C:0003H         LINE#         83
  C:0005H         LINE#         84
  C:0008H         LINE#         85
BL51 BANKED LINKER/LOCATER V6.22                                                      06/01/2019  15:14:54  PAGE 5


  C:000AH         LINE#         86
  C:000AH         LINE#         87
  -------         ENDPROC       _PUTCHAR
  -------         PROC          CMD_RESOLVE
  -------         DO            
  D:0057H         SYMBOL        frq
  D:0057H         SYMBOL        frq
  D:0057H         SYMBOL        t
  D:0057H         SYMBOL        t
  -------         ENDDO         
  -------         DO            
  D:0057H         SYMBOL        frq
  D:0057H         SYMBOL        t
  D:0057H         SYMBOL        t
  -------         ENDDO         
  -------         DO            
  D:0057H         SYMBOL        t
  D:0057H         SYMBOL        t
  -------         ENDDO         
  -------         DO            
  D:0057H         SYMBOL        t
  -------         ENDDO         
  C:0CFBH         LINE#         89
  C:0CFBH         LINE#         90
  C:0CFBH         LINE#         91
  C:0D0DH         LINE#         92
  C:0D33H         LINE#         93
  C:0D45H         LINE#         94
  C:0D45H         LINE#         95
  C:0D4CH         LINE#         97
  C:0D59H         LINE#         98
  C:0D60H         LINE#         100
  C:0D6AH         LINE#         101
  C:0D6DH         LINE#         102
  C:0D7FH         LINE#         103
  C:0D7FH         LINE#         104
  C:0D86H         LINE#         106
  C:0D91H         LINE#         107
  C:0D9AH         LINE#         108
  C:0DA5H         LINE#         109
  C:0DAEH         LINE#         111
  C:0DCEH         LINE#         112
  C:0DD1H         LINE#         113
  C:0DE3H         LINE#         114
  C:0DE3H         LINE#         115
  C:0DEAH         LINE#         117
  C:0DF5H         LINE#         118
  C:0DFDH         LINE#         120
  C:0E1DH         LINE#         121
  C:0E1FH         LINE#         122
  C:0E31H         LINE#         123
  C:0E31H         LINE#         124
  C:0E38H         LINE#         126
  C:0E43H         LINE#         127
  C:0E4BH         LINE#         129
  C:0E6BH         LINE#         130
  C:0E6DH         LINE#         132
BL51 BANKED LINKER/LOCATER V6.22                                                      06/01/2019  15:14:54  PAGE 6


  C:0E76H         LINE#         133
  -------         ENDPROC       CMD_RESOLVE
  -------         PROC          USART_INTERRUPT
  -------         DO            
  D:0022H         SYMBOL        top
  -------         ENDDO         
  C:0FD3H         LINE#         135
  C:0FF0H         LINE#         139
  C:0FF3H         LINE#         140
  C:0FF3H         LINE#         141
  C:0FF8H         LINE#         142
  C:0FFBH         LINE#         144
  C:1001H         LINE#         145
  C:1001H         LINE#         146
  C:1008H         LINE#         147
  C:1013H         LINE#         148
  C:1015H         LINE#         149
  C:1018H         LINE#         150
  C:101BH         LINE#         151
  C:101DH         LINE#         153
  C:1027H         LINE#         155
  C:1029H         LINE#         156
  C:1029H         LINE#         157
  -------         ENDPROC       USART_INTERRUPT
  -------         PROC          MAIN
  -------         DO            
  D:0075H         SYMBOL        count
  -------         ENDDO         
  C:0E77H         LINE#         160
  C:0E77H         LINE#         161
  C:0E77H         LINE#         164
  C:0E7AH         LINE#         165
  C:0E85H         LINE#         167
  C:0E88H         LINE#         168
  C:0E8BH         LINE#         170
  C:0E8BH         LINE#         171
  C:0E8BH         LINE#         172
  C:0E8DH         LINE#         173
  C:0E8FH         LINE#         174
  C:0E92H         LINE#         175
  C:0E94H         LINE#         176
  C:0E96H         LINE#         177
  C:0E99H         LINE#         178
  C:0E9BH         LINE#         179
  C:0E9DH         LINE#         181
  C:0EA4H         LINE#         182
  C:0EA4H         LINE#         183
  C:0EA8H         LINE#         184
  C:0EE7H         LINE#         185
  C:0F26H         LINE#         186
  C:0F31H         LINE#         188
  C:0F35H         LINE#         189
  C:0F38H         LINE#         190
  C:0F3BH         LINE#         191
  C:0F44H         LINE#         192
  C:0F44H         LINE#         193
  -------         ENDPROC       MAIN
BL51 BANKED LINKER/LOCATER V6.22                                                      06/01/2019  15:14:54  PAGE 7


  -------         ENDMOD        MAIN

  -------         MODULE        ?C?FPDIV
  C:0029H         PUBLIC        ?C?FPDIV
  -------         ENDMOD        ?C?FPDIV

  -------         MODULE        ?C?FCAST
  C:00D0H         PUBLIC        ?C?FCASTC
  C:00CBH         PUBLIC        ?C?FCASTI
  C:00C6H         PUBLIC        ?C?FCASTL
  -------         ENDMOD        ?C?FCAST

  -------         MODULE        ?C?CASTF
  C:0104H         PUBLIC        ?C?CASTF
  -------         ENDMOD        ?C?CASTF

  -------         MODULE        PRINTF
  D:0059H         PUBLIC        ?_PRINTF?BYTE
  D:0059H         PUBLIC        ?_SPRINTF?BYTE
  C:08EEH         PUBLIC        _PRINTF
  C:08E8H         PUBLIC        _SPRINTF
  -------         ENDMOD        PRINTF

  -------         MODULE        ?C?FPROUND
  C:0185H         PUBLIC        ?C?FPROUND
  -------         ENDMOD        ?C?FPROUND

  -------         MODULE        ?C?FPCONVERT
  C:01B4H         PUBLIC        ?C?FPCONVERT
  -------         ENDMOD        ?C?FPCONVERT

  -------         MODULE        ?C?FPADD
  C:02BEH         PUBLIC        ?C?FPADD
  C:02BAH         PUBLIC        ?C?FPSUB
  -------         ENDMOD        ?C?FPADD

  -------         MODULE        ?C?FPMUL
  C:03AFH         PUBLIC        ?C?FPMUL
  -------         ENDMOD        ?C?FPMUL

  -------         MODULE        ?C?FTNPWR
  C:04E5H         PUBLIC        ?C?FTNPWR
  -------         ENDMOD        ?C?FTNPWR

  -------         MODULE        ?C?CLDPTR
  C:0525H         PUBLIC        ?C?CLDPTR
  -------         ENDMOD        ?C?CLDPTR

  -------         MODULE        ?C?CLDOPTR
  C:053EH         PUBLIC        ?C?CLDOPTR
  -------         ENDMOD        ?C?CLDOPTR

  -------         MODULE        ?C?CSTPTR
  C:056BH         PUBLIC        ?C?CSTPTR
  -------         ENDMOD        ?C?CSTPTR

  -------         MODULE        ?C?LMUL
BL51 BANKED LINKER/LOCATER V6.22                                                      06/01/2019  15:14:54  PAGE 8


  C:057DH         PUBLIC        ?C?LMUL
  -------         ENDMOD        ?C?LMUL

  -------         MODULE        ?C?ULDIV
  C:0608H         PUBLIC        ?C?ULDIV
  -------         ENDMOD        ?C?ULDIV

  -------         MODULE        ?C?SLDIV
  C:1151H         PUBLIC        ?C?SLDIV
  -------         ENDMOD        ?C?SLDIV

  -------         MODULE        ?C?LNEG
  C:069AH         PUBLIC        ?C?LNEG
  -------         ENDMOD        ?C?LNEG

  -------         MODULE        ?C?ULSHR
  C:06A8H         PUBLIC        ?C?ULSHR
  -------         ENDMOD        ?C?ULSHR

  -------         MODULE        ?C?PLDIIDATA
  C:06BBH         PUBLIC        ?C?PLDIIDATA
  -------         ENDMOD        ?C?PLDIIDATA

  -------         MODULE        ?C?CCASE
  C:06CBH         PUBLIC        ?C?CCASE
  -------         ENDMOD        ?C?CCASE

  -------         MODULE        ?C?STRCMP
  C:086FH         PUBLIC        ?C?STRCMP
  -------         ENDMOD        ?C?STRCMP

Program Size: data=98.1 xdata=0 code=4673
LINK/LOCATE RUN COMPLETE.  0 WARNING(S),  0 ERROR(S)
